; Function Attrs: mustprogress uwtable
define noundef i32 @_ZN3zmq20stream_engine_base_t21pull_msg_from_sessionEPNS_5msg_tE(ptr nocapture noundef nonnull readonly align 8 dereferenceable(1689) %this, ptr noundef %msg_) local_unnamed_addr #0 align 2 {
entry:
  %_session = getelementptr inbounds i8, ptr %this, i64 1672
  %0 = load ptr, ptr %_session, align 8
  %vtable = load ptr, ptr %0, align 8
  %vfn = getelementptr inbounds i8, ptr %vtable, i64 240
  %1 = load ptr, ptr %vfn, align 8
  %call = tail call noundef i32 %1(ptr noundef nonnull align 8 dereferenceable(1624) %0, ptr noundef %msg_)
  ret i32 %call
}